target datalayout = "e-m:e-p270:32:32-p271:32:32-p272:64:64-i64:64-i128:128-f80:128-n8:16:32:64-S128"
target triple = "x86_64-pc-linux-gnu"

%"class.std::__shared_count" = type { ptr }
%"struct.duckdb::LogicalType" = type { i8, i8, %"class.duckdb::shared_ptr" }
%"class.duckdb::shared_ptr" = type { %"class.std::shared_ptr" }
%"class.std::shared_ptr" = type { %"class.std::__shared_ptr" }
%"class.std::__shared_ptr" = type { ptr, %"class.std::__shared_count" }
%"class.duckdb::unique_ptr.62" = type { %"class.std::unique_ptr.63" }
%"class.std::unique_ptr.63" = type { %"struct.std::__uniq_ptr_data.64" }
%"struct.std::__uniq_ptr_data.64" = type { %"class.std::__uniq_ptr_impl.65" }
%"class.std::__uniq_ptr_impl.65" = type { %"class.std::tuple.66" }
%"class.std::tuple.66" = type { %"struct.std::_Tuple_impl.67" }
%"struct.std::_Tuple_impl.67" = type { %"struct.std::_Head_base.70" }
%"struct.std::_Head_base.70" = type { ptr }
%"struct.duckdb::ListLambdaBindData" = type <{ %"struct.duckdb::FunctionData", %"struct.duckdb::LogicalType", %"class.duckdb::unique_ptr.62", i8, [7 x i8] }>
%"struct.duckdb::FunctionData" = type { ptr }

; Function Attrs: mustprogress nounwind uwtable
define linkonce_odr void @_ZN6duckdb16DynamicCastCheckINS_18ListLambdaBindDataENS_12FunctionDataEEEvPKT0_(ptr noundef %0) #5 comdat {
  %2 = alloca ptr, align 8
  store ptr %0, ptr %2, align 8, !tbaa !134
  ret void
}

; Function Attrs: mustprogress uwtable
define linkonce_odr noundef nonnull align 8 dereferenceable(41) ptr @_ZNK6duckdb12FunctionData4CastINS_18ListLambdaBindDataEEERKT_v(ptr noundef nonnull align 8 dereferenceable(8) %0) #4 comdat align 2 {
  %2 = alloca ptr, align 8
  store ptr %0, ptr %2, align 8, !tbaa !134
  %3 = load ptr, ptr %2, align 8
  call void @_ZN6duckdb16DynamicCastCheckINS_18ListLambdaBindDataENS_12FunctionDataEEEvPKT0_(ptr noundef %3)
  ret ptr %3
}

; Function Attrs: mustprogress uwtable
define noundef zeroext i1 @_ZNK6duckdb18ListLambdaBindData6EqualsERKNS_12FunctionDataE(ptr noundef nonnull align 8 dereferenceable(41) %0, ptr noundef nonnull align 8 dereferenceable(8) %1) unnamed_addr #4 align 2 {
  %3 = alloca ptr, align 8
  %4 = alloca ptr, align 8
  %5 = alloca ptr, align 8
  store ptr %0, ptr %3, align 8, !tbaa !109
  store ptr %1, ptr %4, align 8, !tbaa !134
  %6 = load ptr, ptr %3, align 8
  call void @llvm.lifetime.start.p0(i64 8, ptr %5) #3
  %7 = load ptr, ptr %4, align 8, !tbaa !134
  %8 = call noundef nonnull align 8 dereferenceable(41) ptr @_ZNK6duckdb12FunctionData4CastINS_18ListLambdaBindDataEEERKT_v(ptr noundef nonnull align 8 dereferenceable(8) %7)
  store ptr %8, ptr %5, align 8, !tbaa !109
  %9 = getelementptr inbounds nuw %"struct.duckdb::ListLambdaBindData", ptr %6, i32 0, i32 2
  %10 = load ptr, ptr %5, align 8, !tbaa !109
  %11 = getelementptr inbounds nuw %"struct.duckdb::ListLambdaBindData", ptr %10, i32 0, i32 2
  %12 = call noundef zeroext i1 @_ZN6duckdb10Expression6EqualsERKNS_10unique_ptrIS0_St14default_deleteIS0_ELb1EEES6_(ptr noundef nonnull align 8 dereferenceable(8) %9, ptr noundef nonnull align 8 dereferenceable(8) %11)
  br i1 %12, label %13, label %29

13:                                               ; preds = %2
  %14 = getelementptr inbounds nuw %"struct.duckdb::ListLambdaBindData", ptr %6, i32 0, i32 1
  %15 = load ptr, ptr %5, align 8, !tbaa !109
  %16 = getelementptr inbounds nuw %"struct.duckdb::ListLambdaBindData", ptr %15, i32 0, i32 1
  %17 = call noundef zeroext i1 @_ZNK6duckdb11LogicalTypeeqERKS0_(ptr noundef nonnull align 8 dereferenceable(24) %14, ptr noundef nonnull align 8 dereferenceable(24) %16)
  br i1 %17, label %18, label %29

18:                                               ; preds = %13
  %19 = getelementptr inbounds nuw %"struct.duckdb::ListLambdaBindData", ptr %6, i32 0, i32 3
  %20 = load i8, ptr %19, align 8, !tbaa !136, !range !93, !noundef !94
  %21 = trunc i8 %20 to i1
  %22 = zext i1 %21 to i32
  %23 = load ptr, ptr %5, align 8, !tbaa !109
  %24 = getelementptr inbounds nuw %"struct.duckdb::ListLambdaBindData", ptr %23, i32 0, i32 3
  %25 = load i8, ptr %24, align 8, !tbaa !136, !range !93, !noundef !94
  %26 = trunc i8 %25 to i1
  %27 = zext i1 %26 to i32
  %28 = icmp eq i32 %22, %27
  br label %29

29:                                               ; preds = %18, %13, %2
  %30 = phi i1 [ false, %13 ], [ false, %2 ], [ %28, %18 ]
  call void @llvm.lifetime.end.p0(i64 8, ptr %5) #3
  ret i1 %30
}