; Function Attrs: mustprogress uwtable
define noundef zeroext i1 @_ZNK6duckdb18ListLambdaBindData6EqualsERKNS_12FunctionDataE(ptr noundef nonnull align 8 dereferenceable(41) %0, ptr noundef nonnull align 8 dereferenceable(8) %1) unnamed_addr #3 align 2 {
  %3 = getelementptr inbounds nuw i8, ptr %0, i64 32
  %4 = getelementptr inbounds nuw i8, ptr %1, i64 32
  %5 = tail call noundef zeroext i1 @_ZN6duckdb10Expression6EqualsERKNS_10unique_ptrIS0_St14default_deleteIS0_ELb1EEES6_(ptr noundef nonnull align 8 dereferenceable(8) %3, ptr noundef nonnull align 8 dereferenceable(8) %4)
  br i1 %5, label %6, label %16

6:                                                ; preds = %2
  %7 = getelementptr inbounds nuw i8, ptr %0, i64 8
  %8 = getelementptr inbounds nuw i8, ptr %1, i64 8
  %9 = tail call noundef zeroext i1 @_ZNK6duckdb11LogicalTypeeqERKS0_(ptr noundef nonnull align 8 dereferenceable(24) %7, ptr noundef nonnull align 8 dereferenceable(24) %8)
  br i1 %9, label %10, label %16

10:                                               ; preds = %6
  %11 = getelementptr inbounds nuw i8, ptr %0, i64 40
  %12 = load i8, ptr %11, align 8, !tbaa !109, !range !83, !noundef !84
  %13 = getelementptr inbounds nuw i8, ptr %1, i64 40
  %14 = load i8, ptr %13, align 8, !tbaa !109, !range !83, !noundef !84
  %15 = icmp eq i8 %12, %14
  br label %16

16:                                               ; preds = %10, %6, %2
  %17 = phi i1 [ false, %6 ], [ false, %2 ], [ %15, %10 ]
  ret i1 %17
}